target datalayout = "e-m:e-p270:32:32-p271:32:32-p272:64:64-i64:64-i128:128-f80:128-n8:16:32:64-S128"
target triple = "x86_64-pc-linux-gnu"

%struct.ForEachState = type { ptr, i32 }
%struct.Query = type { i32, i32, i32, i64, i8, ptr, i32, i8, i8, i8, i8, i8, i8, i8, i8, i8, i8, i8, ptr, ptr, ptr, ptr, ptr, i32, ptr, ptr, i32, ptr, ptr, ptr, ptr, ptr, i8, ptr, ptr, ptr, ptr, ptr, ptr, ptr, i32, ptr, ptr, ptr, ptr, i32, i32 }
%struct.List = type { i32, i32, i32, ptr, [0 x %union.ListCell] }
%union.ListCell = type { ptr }
%struct.RangeTblEntry = type { i32, ptr, ptr, i32, i32, i8, i8, i32, i32, ptr, ptr, i8, i32, i32, ptr, ptr, ptr, ptr, ptr, i8, ptr, ptr, ptr, i32, i8, ptr, ptr, ptr, ptr, double, ptr, i8, i8, ptr }
%struct.Node = type { i32 }
%struct.FromExpr = type { i32, ptr, ptr }
%struct.RangeTblRef = type { i32, i32 }
%struct.RTEPermissionInfo = type { i32, i32, i8, i64, i32, ptr, ptr, ptr }
%struct.JoinExpr = type { i32, i32, i8, ptr, ptr, ptr, ptr, ptr, ptr, i32 }

@.str.1 = private unnamed_addr constant [17 x i8] c"rewriteHandler.c\00", align 1
@.str.82 = private unnamed_addr constant [27 x i8] c"unrecognized node type: %d\00", align 1
@__func__.markQueryForLocking = private unnamed_addr constant [20 x i8] c"markQueryForLocking\00", align 1

; Function Attrs: inlinehint nounwind uwtable
define internal ptr @list_nth_cell(ptr noundef %0, i32 noundef %1) #5 {
  %3 = alloca ptr, align 8
  %4 = alloca i32, align 4
  store ptr %0, ptr %3, align 8
  store i32 %1, ptr %4, align 4
  %5 = load ptr, ptr %3, align 8
  %6 = getelementptr inbounds nuw %struct.List, ptr %5, i32 0, i32 3
  %7 = load ptr, ptr %6, align 8
  %8 = load i32, ptr %4, align 4
  %9 = sext i32 %8 to i64
  %10 = getelementptr inbounds %union.ListCell, ptr %7, i64 %9
  ret ptr %10
}

; Function Attrs: inlinehint nounwind uwtable
define internal ptr @list_nth(ptr noundef %0, i32 noundef %1) #5 {
  %3 = alloca ptr, align 8
  %4 = alloca i32, align 4
  store ptr %0, ptr %3, align 8
  store i32 %1, ptr %4, align 4
  %5 = load ptr, ptr %3, align 8
  %6 = load i32, ptr %4, align 4
  %7 = call ptr @list_nth_cell(ptr noundef %5, i32 noundef %6)
  %8 = load ptr, ptr %7, align 8
  ret ptr %8
}

; Function Attrs: nounwind uwtable
define internal void @markQueryForLocking(ptr noundef %0, ptr noundef %1, i32 noundef %2, i32 noundef %3, i1 noundef zeroext %4) #0 {
  %6 = alloca ptr, align 8
  %7 = alloca ptr, align 8
  %8 = alloca i32, align 4
  %9 = alloca i32, align 4
  %10 = alloca i8, align 1
  %11 = alloca i32, align 4
  %12 = alloca ptr, align 8
  %13 = alloca ptr, align 8
  %14 = alloca ptr, align 8
  %15 = alloca ptr, align 8
  %16 = alloca %struct.ForEachState, align 8
  %17 = alloca ptr, align 8
  store ptr %0, ptr %6, align 8
  store ptr %1, ptr %7, align 8
  store i32 %2, ptr %8, align 4
  store i32 %3, ptr %9, align 4
  %18 = zext i1 %4 to i8
  store i8 %18, ptr %10, align 1
  %19 = load ptr, ptr %7, align 8
  %20 = icmp eq ptr %19, null
  br i1 %20, label %21, label %22

21:                                               ; preds = %5
  br label %171

22:                                               ; preds = %5
  %23 = load ptr, ptr %7, align 8
  %24 = getelementptr inbounds nuw %struct.Node, ptr %23, i32 0, i32 0
  %25 = load i32, ptr %24, align 4
  %26 = icmp eq i32 %25, 63
  br i1 %26, label %27, label %81

27:                                               ; preds = %22
  call void @llvm.lifetime.start.p0(i64 4, ptr %11) #9
  %28 = load ptr, ptr %7, align 8
  %29 = getelementptr inbounds nuw %struct.RangeTblRef, ptr %28, i32 0, i32 1
  %30 = load i32, ptr %29, align 4
  store i32 %30, ptr %11, align 4
  call void @llvm.lifetime.start.p0(i64 8, ptr %12) #9
  %31 = load ptr, ptr %6, align 8
  %32 = getelementptr inbounds nuw %struct.Query, ptr %31, i32 0, i32 19
  %33 = load ptr, ptr %32, align 8
  %34 = load i32, ptr %11, align 4
  %35 = sub i32 %34, 1
  %36 = call ptr @list_nth(ptr noundef %33, i32 noundef %35)
  store ptr %36, ptr %12, align 8
  %37 = load ptr, ptr %12, align 8
  %38 = getelementptr inbounds nuw %struct.RangeTblEntry, ptr %37, i32 0, i32 3
  %39 = load i32, ptr %38, align 8
  %40 = icmp eq i32 %39, 0
  br i1 %40, label %41, label %57

41:                                               ; preds = %27
  call void @llvm.lifetime.start.p0(i64 8, ptr %13) #9
  %42 = load ptr, ptr %6, align 8
  %43 = load i32, ptr %11, align 4
  %44 = load i32, ptr %8, align 4
  %45 = load i32, ptr %9, align 4
  %46 = load i8, ptr %10, align 1, !range !4, !noundef !5
  %47 = trunc i8 %46 to i1
  call void @applyLockingClause(ptr noundef %42, i32 noundef %43, i32 noundef %44, i32 noundef %45, i1 noundef zeroext %47)
  %48 = load ptr, ptr %6, align 8
  %49 = getelementptr inbounds nuw %struct.Query, ptr %48, i32 0, i32 20
  %50 = load ptr, ptr %49, align 8
  %51 = load ptr, ptr %12, align 8
  %52 = call ptr @getRTEPermissionInfo(ptr noundef %50, ptr noundef %51)
  store ptr %52, ptr %13, align 8
  %53 = load ptr, ptr %13, align 8
  %54 = getelementptr inbounds nuw %struct.RTEPermissionInfo, ptr %53, i32 0, i32 3
  %55 = load i64, ptr %54, align 8
  %56 = or i64 %55, 4
  store i64 %56, ptr %54, align 8
  call void @llvm.lifetime.end.p0(i64 8, ptr %13) #9
  br label %80

57:                                               ; preds = %27
  %58 = load ptr, ptr %12, align 8
  %59 = getelementptr inbounds nuw %struct.RangeTblEntry, ptr %58, i32 0, i32 3
  %60 = load i32, ptr %59, align 8
  %61 = icmp eq i32 %60, 1
  br i1 %61, label %62, label %79

62:                                               ; preds = %57
  %63 = load ptr, ptr %6, align 8
  %64 = load i32, ptr %11, align 4
  %65 = load i32, ptr %8, align 4
  %66 = load i32, ptr %9, align 4
  %67 = load i8, ptr %10, align 1, !range !4, !noundef !5
  %68 = trunc i8 %67 to i1
  call void @applyLockingClause(ptr noundef %63, i32 noundef %64, i32 noundef %65, i32 noundef %66, i1 noundef zeroext %68)
  %69 = load ptr, ptr %12, align 8
  %70 = getelementptr inbounds nuw %struct.RangeTblEntry, ptr %69, i32 0, i32 10
  %71 = load ptr, ptr %70, align 8
  %72 = load ptr, ptr %12, align 8
  %73 = getelementptr inbounds nuw %struct.RangeTblEntry, ptr %72, i32 0, i32 10
  %74 = load ptr, ptr %73, align 8
  %75 = getelementptr inbounds nuw %struct.Query, ptr %74, i32 0, i32 21
  %76 = load ptr, ptr %75, align 8
  %77 = load i32, ptr %8, align 4
  %78 = load i32, ptr %9, align 4
  call void @markQueryForLocking(ptr noundef %71, ptr noundef %76, i32 noundef %77, i32 noundef %78, i1 noundef zeroext true)
  br label %79

79:                                               ; preds = %62, %57
  br label %80

80:                                               ; preds = %79, %41
  call void @llvm.lifetime.end.p0(i64 8, ptr %12) #9
  call void @llvm.lifetime.end.p0(i64 4, ptr %11) #9
  br label %171

81:                                               ; preds = %22
  %82 = load ptr, ptr %7, align 8
  %83 = getelementptr inbounds nuw %struct.Node, ptr %82, i32 0, i32 0
  %84 = load i32, ptr %83, align 4
  %85 = icmp eq i32 %84, 65
  br i1 %85, label %86, label %133

86:                                               ; preds = %81
  call void @llvm.lifetime.start.p0(i64 8, ptr %14) #9
  %87 = load ptr, ptr %7, align 8
  store ptr %87, ptr %14, align 8
  call void @llvm.lifetime.start.p0(i64 8, ptr %15) #9
  call void @llvm.lifetime.start.p0(i64 16, ptr %16) #9
  %88 = getelementptr inbounds nuw %struct.ForEachState, ptr %16, i32 0, i32 0
  %89 = load ptr, ptr %14, align 8
  %90 = getelementptr inbounds nuw %struct.FromExpr, ptr %89, i32 0, i32 1
  %91 = load ptr, ptr %90, align 8
  store ptr %91, ptr %88, align 8
  %92 = getelementptr inbounds nuw %struct.ForEachState, ptr %16, i32 0, i32 1
  store i32 0, ptr %92, align 8
  %93 = getelementptr i8, ptr %16, i64 12
  call void @llvm.memset.p0.i64(ptr align 4 %93, i8 0, i64 4, i1 false)
  br label %94

94:                                               ; preds = %128, %86
  %95 = getelementptr inbounds nuw %struct.ForEachState, ptr %16, i32 0, i32 0
  %96 = load ptr, ptr %95, align 8
  %97 = icmp ne ptr %96, null
  br i1 %97, label %98, label %115

98:                                               ; preds = %94
  %99 = getelementptr inbounds nuw %struct.ForEachState, ptr %16, i32 0, i32 1
  %100 = load i32, ptr %99, align 8
  %101 = getelementptr inbounds nuw %struct.ForEachState, ptr %16, i32 0, i32 0
  %102 = load ptr, ptr %101, align 8
  %103 = getelementptr inbounds nuw %struct.List, ptr %102, i32 0, i32 1
  %104 = load i32, ptr %103, align 4
  %105 = icmp slt i32 %100, %104
  br i1 %105, label %106, label %115

106:                                              ; preds = %98
  %107 = getelementptr inbounds nuw %struct.ForEachState, ptr %16, i32 0, i32 0
  %108 = load ptr, ptr %107, align 8
  %109 = getelementptr inbounds nuw %struct.List, ptr %108, i32 0, i32 3
  %110 = load ptr, ptr %109, align 8
  %111 = getelementptr inbounds nuw %struct.ForEachState, ptr %16, i32 0, i32 1
  %112 = load i32, ptr %111, align 8
  %113 = sext i32 %112 to i64
  %114 = getelementptr inbounds %union.ListCell, ptr %110, i64 %113
  store ptr %114, ptr %15, align 8
  br label %116

115:                                              ; preds = %98, %94
  store ptr null, ptr %15, align 8
  br label %116

116:                                              ; preds = %115, %106
  %117 = phi i32 [ 1, %106 ], [ 0, %115 ]
  %118 = icmp ne i32 %117, 0
  br i1 %118, label %120, label %119

119:                                              ; preds = %116
  call void @llvm.lifetime.end.p0(i64 16, ptr %16) #9
  br label %132

120:                                              ; preds = %116
  %121 = load ptr, ptr %6, align 8
  %122 = load ptr, ptr %15, align 8
  %123 = load ptr, ptr %122, align 8
  %124 = load i32, ptr %8, align 4
  %125 = load i32, ptr %9, align 4
  %126 = load i8, ptr %10, align 1, !range !4, !noundef !5
  %127 = trunc i8 %126 to i1
  call void @markQueryForLocking(ptr noundef %121, ptr noundef %123, i32 noundef %124, i32 noundef %125, i1 noundef zeroext %127)
  br label %128

128:                                              ; preds = %120
  %129 = getelementptr inbounds nuw %struct.ForEachState, ptr %16, i32 0, i32 1
  %130 = load i32, ptr %129, align 8
  %131 = add i32 %130, 1
  store i32 %131, ptr %129, align 8
  br label %94, !llvm.loop !75

132:                                              ; preds = %119
  call void @llvm.lifetime.end.p0(i64 8, ptr %15) #9
  call void @llvm.lifetime.end.p0(i64 8, ptr %14) #9
  br label %170

133:                                              ; preds = %81
  %134 = load ptr, ptr %7, align 8
  %135 = getelementptr inbounds nuw %struct.Node, ptr %134, i32 0, i32 0
  %136 = load i32, ptr %135, align 4
  %137 = icmp eq i32 %136, 64
  br i1 %137, label %138, label %156

138:                                              ; preds = %133
  call void @llvm.lifetime.start.p0(i64 8, ptr %17) #9
  %139 = load ptr, ptr %7, align 8
  store ptr %139, ptr %17, align 8
  %140 = load ptr, ptr %6, align 8
  %141 = load ptr, ptr %17, align 8
  %142 = getelementptr inbounds nuw %struct.JoinExpr, ptr %141, i32 0, i32 3
  %143 = load ptr, ptr %142, align 8
  %144 = load i32, ptr %8, align 4
  %145 = load i32, ptr %9, align 4
  %146 = load i8, ptr %10, align 1, !range !4, !noundef !5
  %147 = trunc i8 %146 to i1
  call void @markQueryForLocking(ptr noundef %140, ptr noundef %143, i32 noundef %144, i32 noundef %145, i1 noundef zeroext %147)
  %148 = load ptr, ptr %6, align 8
  %149 = load ptr, ptr %17, align 8
  %150 = getelementptr inbounds nuw %struct.JoinExpr, ptr %149, i32 0, i32 4
  %151 = load ptr, ptr %150, align 8
  %152 = load i32, ptr %8, align 4
  %153 = load i32, ptr %9, align 4
  %154 = load i8, ptr %10, align 1, !range !4, !noundef !5
  %155 = trunc i8 %154 to i1
  call void @markQueryForLocking(ptr noundef %148, ptr noundef %151, i32 noundef %152, i32 noundef %153, i1 noundef zeroext %155)
  call void @llvm.lifetime.end.p0(i64 8, ptr %17) #9
  br label %169

156:                                              ; preds = %133
  br label %157

157:                                              ; preds = %156
  br i1 true, label %158, label %160

158:                                              ; preds = %157
  %159 = call zeroext i1 @errstart_cold(i32 noundef 21, ptr noundef null) #10
  br i1 %159, label %162, label %167

160:                                              ; preds = %157
  %161 = call zeroext i1 @errstart(i32 noundef 21, ptr noundef null)
  br i1 %161, label %162, label %167

162:                                              ; preds = %160, %158
  %163 = load ptr, ptr %7, align 8
  %164 = getelementptr inbounds nuw %struct.Node, ptr %163, i32 0, i32 0
  %165 = load i32, ptr %164, align 4
  %166 = call i32 (ptr, ...) @errmsg_internal(ptr noundef @.str.82, i32 noundef %165)
  call void @errfinish(ptr noundef @.str.1, i32 noundef 1936, ptr noundef @__func__.markQueryForLocking)
  br label %167

167:                                              ; preds = %162, %160, %158
  unreachable

168:                                              ; No predecessors!
  br label %169

169:                                              ; preds = %168, %138
  br label %170

170:                                              ; preds = %169, %132
  br label %171

171:                                              ; preds = %21, %170, %80
  ret void
}