; Function Attrs: nounwind uwtable
define internal fastcc void @markQueryForLocking(ptr noundef %0, ptr noundef readonly captures(address_is_null) %1, i32 noundef %2, i32 noundef %3) unnamed_addr #0 {
  %5 = icmp eq ptr %1, null
  br i1 %5, label %.thread, label %.lr.ph

.lr.ph:                                           ; preds = %4, %tailrecurse.outer
  %.tr55.ph73 = phi ptr [ %30, %tailrecurse.outer ], [ %1, %4 ]
  %.tr.ph72 = phi ptr [ %28, %tailrecurse.outer ], [ %0, %4 ]
  br label %6

6:                                                ; preds = %.lr.ph, %tailrecurse
  %.tr5571 = phi ptr [ %.tr55.ph73, %.lr.ph ], [ %48, %tailrecurse ]
  %7 = load i32, ptr %.tr5571, align 4
  switch i32 %7, label %50 [
    i32 63, label %8
    i32 65, label %32
    i32 64, label %tailrecurse
  ]

8:                                                ; preds = %6
  %9 = getelementptr inbounds nuw i8, ptr %.tr5571, i64 4
  %10 = load i32, ptr %9, align 4
  %11 = getelementptr inbounds nuw i8, ptr %.tr.ph72, i64 64
  %12 = load ptr, ptr %11, align 8
  %13 = add i32 %10, -1
  %14 = getelementptr i8, ptr %12, i64 16
  %.val = load ptr, ptr %14, align 8
  %15 = sext i32 %13 to i64
  %16 = getelementptr inbounds %union.ListCell, ptr %.val, i64 %15
  %17 = load ptr, ptr %16, align 8
  %18 = getelementptr inbounds nuw i8, ptr %17, i64 24
  %19 = load i32, ptr %18, align 8
  switch i32 %19, label %.thread [
    i32 0, label %20
    i32 1, label %tailrecurse.outer
  ]

20:                                               ; preds = %8
  tail call void @applyLockingClause(ptr noundef nonnull %.tr.ph72, i32 noundef %10, i32 noundef %2, i32 noundef %3, i1 noundef zeroext true) #10
  %21 = getelementptr inbounds nuw i8, ptr %.tr.ph72, i64 72
  %22 = load ptr, ptr %21, align 8
  %23 = tail call ptr @getRTEPermissionInfo(ptr noundef %22, ptr noundef nonnull %17) #10
  %24 = getelementptr inbounds nuw i8, ptr %23, i64 16
  %25 = load i64, ptr %24, align 8
  %26 = or i64 %25, 4
  store i64 %26, ptr %24, align 8
  br label %.thread

tailrecurse.outer:                                ; preds = %8
  tail call void @applyLockingClause(ptr noundef nonnull %.tr.ph72, i32 noundef %10, i32 noundef %2, i32 noundef %3, i1 noundef zeroext true) #10
  %27 = getelementptr inbounds nuw i8, ptr %17, i64 56
  %28 = load ptr, ptr %27, align 8
  %29 = getelementptr inbounds nuw i8, ptr %28, i64 80
  %30 = load ptr, ptr %29, align 8
  %31 = icmp eq ptr %30, null
  br i1 %31, label %.thread, label %.lr.ph

32:                                               ; preds = %6
  %33 = getelementptr inbounds nuw i8, ptr %.tr5571, i64 8
  %34 = load ptr, ptr %33, align 8
  %35 = getelementptr inbounds nuw i8, ptr %34, i64 4
  %.not = icmp eq ptr %34, null
  br i1 %.not, label %.thread, label %.lr.ph75

.lr.ph75:                                         ; preds = %32
  %36 = getelementptr inbounds nuw i8, ptr %34, i64 16
  %37 = load i32, ptr %35, align 4
  %38 = icmp sgt i32 %37, 0
  br i1 %38, label %.lr.ph78, label %.thread

.lr.ph78:                                         ; preds = %.lr.ph75, %.lr.ph78
  %indvars.iv = phi i64 [ %indvars.iv.next, %.lr.ph78 ], [ 0, %.lr.ph75 ]
  %39 = load ptr, ptr %36, align 8
  %40 = getelementptr inbounds nuw %union.ListCell, ptr %39, i64 %indvars.iv
  %41 = load ptr, ptr %40, align 8
  tail call fastcc void @markQueryForLocking(ptr noundef %.tr.ph72, ptr noundef %41, i32 noundef %2, i32 noundef %3)
  %indvars.iv.next = add nuw nsw i64 %indvars.iv, 1
  %42 = load i32, ptr %35, align 4
  %43 = sext i32 %42 to i64
  %44 = icmp slt i64 %indvars.iv.next, %43
  br i1 %44, label %.lr.ph78, label %.thread

tailrecurse:                                      ; preds = %6
  %45 = getelementptr inbounds nuw i8, ptr %.tr5571, i64 16
  %46 = load ptr, ptr %45, align 8
  tail call fastcc void @markQueryForLocking(ptr noundef %.tr.ph72, ptr noundef %46, i32 noundef %2, i32 noundef %3)
  %47 = getelementptr inbounds nuw i8, ptr %.tr5571, i64 24
  %48 = load ptr, ptr %47, align 8
  %49 = icmp eq ptr %48, null
  br i1 %49, label %.thread, label %6

50:                                               ; preds = %6
  %51 = tail call zeroext i1 @errstart_cold(i32 noundef 21, ptr noundef null) #11
  tail call void @llvm.assume(i1 %51)
  %52 = load i32, ptr %.tr5571, align 4
  %53 = tail call i32 (ptr, ...) @errmsg_internal(ptr noundef nonnull @.str.82, i32 noundef %52) #10
  tail call void @errfinish(ptr noundef nonnull @.str.1, i32 noundef 1936, ptr noundef nonnull @__func__.markQueryForLocking) #10
  unreachable

.thread:                                          ; preds = %tailrecurse.outer, %8, %tailrecurse, %.lr.ph78, %4, %32, %.lr.ph75, %20
  ret void
}